; Function Attrs: mustprogress uwtable
define void @_ZN32pxrInternal_v0_24__pxrReserved__26HdNoticeBatchingSceneIndexC2ERKNS_8TfRefPtrINS_16HdSceneIndexBaseEEE(ptr noundef nonnull align 8 dereferenceable(184) %0, ptr noundef nonnull align 8 dereferenceable(8) %1) unnamed_addr #3 align 2 {
  tail call void @_ZN32pxrInternal_v0_24__pxrReserved__36HdSingleInputFilteringSceneIndexBaseC2ERKNS_8TfRefPtrINS_16HdSceneIndexBaseEEE(ptr noundef nonnull align 8 dereferenceable(152) %0, ptr noundef nonnull align 8 dereferenceable(8) %1)
  store ptr getelementptr inbounds inrange(-16, 80) (i8, ptr @_ZTVN32pxrInternal_v0_24__pxrReserved__26HdNoticeBatchingSceneIndexE, i64 16), ptr %0, align 8
  %3 = getelementptr inbounds nuw i8, ptr %0, i64 152
  store i8 0, ptr %3, align 8
  %4 = getelementptr inbounds nuw i8, ptr %0, i64 160
  tail call void @llvm.memset.p0.i64(ptr noundef nonnull align 8 dereferenceable(24) %4, i8 0, i64 24, i1 false)
  ret void
}